; Function Attrs: mustprogress uwtable
define hidden void @_ZN7datalog23collect_sub_permutationERK7svectorIjjES3_RS1_Rb(ptr nocapture noundef nonnull readonly align 8 dereferenceable(8) %permutation, ptr nocapture noundef nonnull readonly align 8 dereferenceable(8) %translation, ptr noundef nonnull align 8 dereferenceable(8) %res, ptr nocapture noundef nonnull writeonly align 1 dereferenceable(1) %identity) local_unnamed_addr #3 {
entry:
  store i8 1, ptr %identity, align 1
  %0 = load ptr, ptr %permutation, align 8
  %cmp.i = icmp eq ptr %0, null
  br i1 %cmp.i, label %for.end, label %_ZNK6vectorIjLb0EjE4sizeEv.exit

_ZNK6vectorIjLb0EjE4sizeEv.exit:                  ; preds = %entry
  %arrayidx.i = getelementptr inbounds i8, ptr %0, i64 -4
  %1 = load i32, ptr %arrayidx.i, align 4
  %cmp21.not = icmp eq i32 %1, 0
  br i1 %cmp21.not, label %for.end, label %for.body.preheader

for.body.preheader:                               ; preds = %_ZNK6vectorIjLb0EjE4sizeEv.exit
  %wide.trip.count = zext i32 %1 to i64
  br label %for.body

for.body:                                         ; preds = %for.body.preheader, %for.inc
  %indvars.iv = phi i64 [ 0, %for.body.preheader ], [ %indvars.iv.next, %for.inc ]
  %2 = load ptr, ptr %permutation, align 8
  %arrayidx.i9 = getelementptr inbounds i32, ptr %2, i64 %indvars.iv
  %3 = load i32, ptr %arrayidx.i9, align 4
  %4 = load ptr, ptr %translation, align 8
  %idxprom.i10 = zext i32 %3 to i64
  %arrayidx.i11 = getelementptr inbounds i32, ptr %4, i64 %idxprom.i10
  %5 = load i32, ptr %arrayidx.i11, align 4
  %cmp3.not = icmp eq i32 %5, -1
  br i1 %cmp3.not, label %for.inc, label %if.then

if.then:                                          ; preds = %for.body
  %6 = load ptr, ptr %res, align 8
  %cmp.i14 = icmp eq ptr %6, null
  br i1 %cmp.i14, label %if.then.i, label %_ZNK6vectorIjLb0EjE5emptyEv.exit

_ZNK6vectorIjLb0EjE5emptyEv.exit:                 ; preds = %if.then
  %arrayidx.i15 = getelementptr inbounds i8, ptr %6, i64 -4
  %7 = load i32, ptr %arrayidx.i15, align 4
  %cmp3.i = icmp eq i32 %7, 0
  br i1 %cmp3.i, label %lor.lhs.false.i, label %_ZN6vectorIjLb0EjE4backEv.exit

_ZN6vectorIjLb0EjE4backEv.exit:                   ; preds = %_ZNK6vectorIjLb0EjE5emptyEv.exit
  %8 = add i32 %7, -1
  %9 = zext i32 %8 to i64
  %arrayidx.i1.i = getelementptr inbounds i32, ptr %6, i64 %9
  %10 = load i32, ptr %arrayidx.i1.i, align 4
  %add = add i32 %10, 1
  %cmp7.not = icmp eq i32 %5, %add
  br i1 %cmp7.not, label %lor.lhs.false.i, label %if.end

if.end:                                           ; preds = %_ZN6vectorIjLb0EjE4backEv.exit
  store i8 0, ptr %identity, align 1
  %.pr.pre = load ptr, ptr %res, align 8
  %cmp.i16 = icmp eq ptr %.pr.pre, null
  br i1 %cmp.i16, label %if.then.i, label %lor.lhs.false.i

lor.lhs.false.i:                                  ; preds = %_ZNK6vectorIjLb0EjE5emptyEv.exit, %_ZN6vectorIjLb0EjE4backEv.exit, %if.end
  %.pr29 = phi ptr [ %.pr.pre, %if.end ], [ %6, %_ZN6vectorIjLb0EjE4backEv.exit ], [ %6, %_ZNK6vectorIjLb0EjE5emptyEv.exit ]
  %arrayidx.i17 = getelementptr inbounds i8, ptr %.pr29, i64 -4
  %11 = load i32, ptr %arrayidx.i17, align 4
  %arrayidx4.i = getelementptr inbounds i8, ptr %.pr29, i64 -8
  %12 = load i32, ptr %arrayidx4.i, align 4
  %cmp5.i = icmp eq i32 %11, %12
  br i1 %cmp5.i, label %if.then.i, label %_ZN6vectorIjLb0EjE9push_backERKj.exit

if.then.i:                                        ; preds = %if.then, %lor.lhs.false.i, %if.end
  tail call void @_ZN6vectorIjLb0EjE13expand_vectorEv(ptr noundef nonnull align 8 dereferenceable(8) %res)
  %.pre.i = load ptr, ptr %res, align 8
  %arrayidx8.phi.trans.insert.i = getelementptr inbounds i8, ptr %.pre.i, i64 -4
  %.pre1.i = load i32, ptr %arrayidx8.phi.trans.insert.i, align 4
  br label %_ZN6vectorIjLb0EjE9push_backERKj.exit

_ZN6vectorIjLb0EjE9push_backERKj.exit:            ; preds = %lor.lhs.false.i, %if.then.i
  %13 = phi i32 [ %.pre1.i, %if.then.i ], [ %11, %lor.lhs.false.i ]
  %14 = phi ptr [ %.pre.i, %if.then.i ], [ %.pr29, %lor.lhs.false.i ]
  %idx.ext.i = zext i32 %13 to i64
  %add.ptr.i = getelementptr inbounds i32, ptr %14, i64 %idx.ext.i
  store i32 %5, ptr %add.ptr.i, align 4
  %15 = load ptr, ptr %res, align 8
  %arrayidx10.i = getelementptr inbounds i8, ptr %15, i64 -4
  %16 = load i32, ptr %arrayidx10.i, align 4
  %inc.i = add i32 %16, 1
  store i32 %inc.i, ptr %arrayidx10.i, align 4
  br label %for.inc

for.inc:                                          ; preds = %for.body, %_ZN6vectorIjLb0EjE9push_backERKj.exit
  %indvars.iv.next = add nuw nsw i64 %indvars.iv, 1
  %exitcond.not = icmp eq i64 %indvars.iv.next, %wide.trip.count
  br i1 %exitcond.not, label %for.end, label %for.body, !llvm.loop !36

for.end:                                          ; preds = %for.inc, %entry, %_ZNK6vectorIjLb0EjE4sizeEv.exit
  ret void
}